(dp0
S'outFile'
p1
S'/users/heegeradmin/Sites/sites/dashboard/assets/data/'
p2
sS'Foo'
p3
S'Bar'
p4
sS'inFileDB'
p5
S'/users/heegeradmin/internal/babysleepDatabase/babysleep.db'
p6
sS'Parrot'
p7
S'Dead'
p8
s.